target datalayout = "e-m:e-p270:32:32-p271:32:32-p272:64:64-i64:64-i128:128-f80:128-n8:16:32:64-S128"
target triple = "x86_64-pc-linux-gnu"

%struct.ml_dsa_sig_gen_test_data_st = type { ptr, ptr, i64, ptr, i64, ptr, i64, ptr, i64 }

@.str.29 = private unnamed_addr constant [30 x i8] c"../openssl/test/ml_dsa_test.c\00", align 1
@.str.33 = private unnamed_addr constant [5 x i8] c"priv\00", align 1
@.str.136 = private unnamed_addr constant [69 x i8] c"ml_dsa_create_keypair(&key, td->alg, priv, td->priv_len, NULL, 0, 0)\00", align 1
@.str.137 = private unnamed_addr constant [69 x i8] c"ml_dsa_create_keypair(&key, td->alg, priv, td->priv_len, NULL, 0, 1)\00", align 1

; Function Attrs: nounwind uwtable
define internal i32 @ml_dsa_priv_pub_bad_t0_test() #0 {
  %1 = alloca i32, align 4
  %2 = alloca ptr, align 8
  %3 = alloca ptr, align 8
  %4 = alloca ptr, align 8
  call void @llvm.lifetime.start.p0(i64 4, ptr %1) #4
  store i32 0, ptr %1, align 4, !tbaa !9
  call void @llvm.lifetime.start.p0(i64 8, ptr %2) #4
  store ptr null, ptr %2, align 8, !tbaa !15
  call void @llvm.lifetime.start.p0(i64 8, ptr %3) #4
  store ptr @ml_dsa_siggen_testdata, ptr %3, align 8, !tbaa !27
  call void @llvm.lifetime.start.p0(i64 8, ptr %4) #4
  %5 = load ptr, ptr %3, align 8, !tbaa !27
  %6 = getelementptr inbounds nuw %struct.ml_dsa_sig_gen_test_data_st, ptr %5, i32 0, i32 1
  %7 = load ptr, ptr %6, align 8, !tbaa !41
  %8 = load ptr, ptr %3, align 8, !tbaa !27
  %9 = getelementptr inbounds nuw %struct.ml_dsa_sig_gen_test_data_st, ptr %8, i32 0, i32 2
  %10 = load i64, ptr %9, align 8, !tbaa !42
  %11 = call noalias ptr @CRYPTO_memdup(ptr noundef %7, i64 noundef %10, ptr noundef @.str.29, i32 noundef 504)
  store ptr %11, ptr %4, align 8, !tbaa !4
  %12 = load ptr, ptr %4, align 8, !tbaa !4
  %13 = call i32 @test_ptr(ptr noundef @.str.29, i32 noundef 506, ptr noundef @.str.33, ptr noundef %12)
  %14 = icmp ne i32 %13, 0
  br i1 %14, label %16, label %15

15:                                               ; preds = %0
  br label %72

16:                                               ; preds = %0
  %17 = load ptr, ptr %4, align 8, !tbaa !4
  %18 = load ptr, ptr %3, align 8, !tbaa !27
  %19 = getelementptr inbounds nuw %struct.ml_dsa_sig_gen_test_data_st, ptr %18, i32 0, i32 1
  %20 = load ptr, ptr %19, align 8, !tbaa !41
  %21 = load ptr, ptr %3, align 8, !tbaa !27
  %22 = getelementptr inbounds nuw %struct.ml_dsa_sig_gen_test_data_st, ptr %21, i32 0, i32 2
  %23 = load i64, ptr %22, align 8, !tbaa !42
  call void @llvm.memcpy.p0.p0.i64(ptr align 1 %17, ptr align 1 %20, i64 %23, i1 false)
  %24 = load ptr, ptr %4, align 8, !tbaa !4
  %25 = load ptr, ptr %3, align 8, !tbaa !27
  %26 = getelementptr inbounds nuw %struct.ml_dsa_sig_gen_test_data_st, ptr %25, i32 0, i32 2
  %27 = load i64, ptr %26, align 8, !tbaa !42
  %28 = sub i64 %27, 2496
  %29 = getelementptr inbounds nuw i8, ptr %24, i64 %28
  %30 = load i8, ptr %29, align 1, !tbaa !62
  %31 = zext i8 %30 to i32
  %32 = xor i32 %31, 1
  %33 = trunc i32 %32 to i8
  store i8 %33, ptr %29, align 1, !tbaa !62
  %34 = load ptr, ptr %3, align 8, !tbaa !27
  %35 = getelementptr inbounds nuw %struct.ml_dsa_sig_gen_test_data_st, ptr %34, i32 0, i32 0
  %36 = load ptr, ptr %35, align 8, !tbaa !40
  %37 = load ptr, ptr %4, align 8, !tbaa !4
  %38 = load ptr, ptr %3, align 8, !tbaa !27
  %39 = getelementptr inbounds nuw %struct.ml_dsa_sig_gen_test_data_st, ptr %38, i32 0, i32 2
  %40 = load i64, ptr %39, align 8, !tbaa !42
  %41 = call i32 @ml_dsa_create_keypair(ptr noundef %2, ptr noundef %36, ptr noundef %37, i64 noundef %40, ptr noundef null, i64 noundef 0, i32 noundef 0)
  %42 = icmp ne i32 %41, 0
  %43 = zext i1 %42 to i32
  %44 = call i32 @test_true(ptr noundef @.str.29, i32 noundef 515, ptr noundef @.str.136, i32 noundef %43)
  %45 = icmp ne i32 %44, 0
  br i1 %45, label %47, label %46

46:                                               ; preds = %16
  br label %72

47:                                               ; preds = %16
  %48 = load ptr, ptr %4, align 8, !tbaa !4
  %49 = load ptr, ptr %3, align 8, !tbaa !27
  %50 = getelementptr inbounds nuw %struct.ml_dsa_sig_gen_test_data_st, ptr %49, i32 0, i32 2
  %51 = load i64, ptr %50, align 8, !tbaa !42
  %52 = sub i64 %51, 2496
  %53 = getelementptr inbounds nuw i8, ptr %48, i64 %52
  %54 = load i8, ptr %53, align 1, !tbaa !62
  %55 = zext i8 %54 to i32
  %56 = xor i32 %55, 1
  %57 = trunc i32 %56 to i8
  store i8 %57, ptr %53, align 1, !tbaa !62
  %58 = load ptr, ptr %3, align 8, !tbaa !27
  %59 = getelementptr inbounds nuw %struct.ml_dsa_sig_gen_test_data_st, ptr %58, i32 0, i32 0
  %60 = load ptr, ptr %59, align 8, !tbaa !40
  %61 = load ptr, ptr %4, align 8, !tbaa !4
  %62 = load ptr, ptr %3, align 8, !tbaa !27
  %63 = getelementptr inbounds nuw %struct.ml_dsa_sig_gen_test_data_st, ptr %62, i32 0, i32 2
  %64 = load i64, ptr %63, align 8, !tbaa !42
  %65 = call i32 @ml_dsa_create_keypair(ptr noundef %2, ptr noundef %60, ptr noundef %61, i64 noundef %64, ptr noundef null, i64 noundef 0, i32 noundef 1)
  %66 = icmp ne i32 %65, 0
  %67 = zext i1 %66 to i32
  %68 = call i32 @test_true(ptr noundef @.str.29, i32 noundef 520, ptr noundef @.str.137, i32 noundef %67)
  %69 = icmp ne i32 %68, 0
  br i1 %69, label %71, label %70

70:                                               ; preds = %47
  br label %72

71:                                               ; preds = %47
  store i32 1, ptr %1, align 4, !tbaa !9
  br label %72

72:                                               ; preds = %71, %70, %46, %15
  %73 = load ptr, ptr %4, align 8, !tbaa !4
  call void @CRYPTO_free(ptr noundef %73, ptr noundef @.str.29, i32 noundef 524)
  %74 = load ptr, ptr %2, align 8, !tbaa !15
  call void @EVP_PKEY_free(ptr noundef %74)
  %75 = load i32, ptr %1, align 4, !tbaa !9
  call void @llvm.lifetime.end.p0(i64 8, ptr %4) #4
  call void @llvm.lifetime.end.p0(i64 8, ptr %3) #4
  call void @llvm.lifetime.end.p0(i64 8, ptr %2) #4
  call void @llvm.lifetime.end.p0(i64 4, ptr %1) #4
  ret i32 %75
}