; Function Attrs: nounwind uwtable
define internal range(i32 0, 2) i32 @ml_dsa_priv_pub_bad_t0_test() #1 {
  %1 = alloca ptr, align 8
  call void @llvm.lifetime.start.p0(i64 8, ptr nonnull %1) #5
  store ptr null, ptr %1, align 8, !tbaa !16
  %2 = tail call noalias ptr @CRYPTO_memdup(ptr noundef nonnull @ml_dsa_65_0_sig_gen_priv, i64 noundef 4032, ptr noundef nonnull @.str.29, i32 noundef 504) #5
  %3 = tail call i32 @test_ptr(ptr noundef nonnull @.str.29, i32 noundef 506, ptr noundef nonnull @.str.33, ptr noundef %2) #5
  %.not = icmp eq i32 %3, 0
  br i1 %.not, label %13, label %4

4:                                                ; preds = %0
  tail call void @llvm.memcpy.p0.p0.i64(ptr noundef nonnull align 1 dereferenceable(4032) %2, ptr noundef nonnull align 16 dereferenceable(4032) @ml_dsa_65_0_sig_gen_priv, i64 4032, i1 false)
  %5 = getelementptr inbounds nuw i8, ptr %2, i64 1536
  store i8 -66, ptr %5, align 1, !tbaa !32
  %6 = call fastcc i32 @ml_dsa_create_keypair(ptr noundef %1, ptr noundef nonnull @.str.39, ptr noundef nonnull %2, i64 noundef 4032, ptr noundef null, i64 noundef 0, i32 noundef 0)
  %7 = call i32 @test_true(ptr noundef nonnull @.str.29, i32 noundef 515, ptr noundef nonnull @.str.136, i32 noundef %6) #5
  %.not17 = icmp eq i32 %7, 0
  br i1 %.not17, label %13, label %8

8:                                                ; preds = %4
  %9 = load i8, ptr %5, align 1, !tbaa !32
  %10 = xor i8 %9, 1
  store i8 %10, ptr %5, align 1, !tbaa !32
  %11 = call fastcc i32 @ml_dsa_create_keypair(ptr noundef %1, ptr noundef nonnull @.str.39, ptr noundef nonnull %2, i64 noundef 4032, ptr noundef null, i64 noundef 0, i32 noundef 1)
  %12 = call i32 @test_true(ptr noundef nonnull @.str.29, i32 noundef 520, ptr noundef nonnull @.str.137, i32 noundef %11) #5
  %.not18 = icmp ne i32 %12, 0
  %spec.select = zext i1 %.not18 to i32
  br label %13

13:                                               ; preds = %8, %4, %0
  %.0 = phi i32 [ 0, %4 ], [ 0, %0 ], [ %spec.select, %8 ]
  call void @CRYPTO_free(ptr noundef %2, ptr noundef nonnull @.str.29, i32 noundef 524) #5
  %14 = load ptr, ptr %1, align 8, !tbaa !16
  call void @EVP_PKEY_free(ptr noundef %14) #5
  call void @llvm.lifetime.end.p0(i64 8, ptr nonnull %1) #5
  ret i32 %.0
}